target datalayout = "e-m:e-p270:32:32-p271:32:32-p272:64:64-i64:64-i128:128-f80:128-n8:16:32:64-S128"
target triple = "x86_64-pc-linux-gnu"

%"class.glslang::HlslTokenStream" = type <{ ptr, %"struct.glslang::HlslToken", ptr, %"class.glslang::TVector", %"class.glslang::TVector.0", %"class.glslang::TVector.4", [2 x %"struct.glslang::HlslToken"], i32, [4 x i8], [2 x %"struct.glslang::HlslToken"], i32, [4 x i8] }>
%"struct.glslang::HlslToken" = type { %"struct.glslang::TSourceLoc", i32, %union.anon }
%"struct.glslang::TSourceLoc" = type { ptr, i32, i32, i32 }
%union.anon = type { ptr }
%"class.glslang::TVector" = type { %"class.std::vector" }
%"class.std::vector" = type { %"struct.std::_Vector_base" }
%"struct.std::_Vector_base" = type { %"struct.std::_Vector_base<const glslang::TVector<glslang::HlslToken> *, glslang::pool_allocator<const glslang::TVector<glslang::HlslToken> *>>::_Vector_impl" }
%"struct.std::_Vector_base<const glslang::TVector<glslang::HlslToken> *, glslang::pool_allocator<const glslang::TVector<glslang::HlslToken> *>>::_Vector_impl" = type { %"class.glslang::pool_allocator", %"struct.std::_Vector_base<const glslang::TVector<glslang::HlslToken> *, glslang::pool_allocator<const glslang::TVector<glslang::HlslToken> *>>::_Vector_impl_data" }
%"class.glslang::pool_allocator" = type { ptr }
%"struct.std::_Vector_base<const glslang::TVector<glslang::HlslToken> *, glslang::pool_allocator<const glslang::TVector<glslang::HlslToken> *>>::_Vector_impl_data" = type { ptr, ptr, ptr }
%"class.glslang::TVector.0" = type { %"class.std::vector.1" }
%"class.std::vector.1" = type { %"struct.std::_Vector_base.2" }
%"struct.std::_Vector_base.2" = type { %"struct.std::_Vector_base<int, glslang::pool_allocator<int>>::_Vector_impl" }
%"struct.std::_Vector_base<int, glslang::pool_allocator<int>>::_Vector_impl" = type { %"class.glslang::pool_allocator.3", %"struct.std::_Vector_base<int, glslang::pool_allocator<int>>::_Vector_impl_data" }
%"class.glslang::pool_allocator.3" = type { ptr }
%"struct.std::_Vector_base<int, glslang::pool_allocator<int>>::_Vector_impl_data" = type { ptr, ptr, ptr }
%"class.glslang::TVector.4" = type { %"class.std::vector.5" }
%"class.std::vector.5" = type { %"struct.std::_Vector_base.6" }
%"struct.std::_Vector_base.6" = type { %"struct.std::_Vector_base<glslang::HlslToken, glslang::pool_allocator<glslang::HlslToken>>::_Vector_impl" }
%"struct.std::_Vector_base<glslang::HlslToken, glslang::pool_allocator<glslang::HlslToken>>::_Vector_impl" = type { %"class.glslang::pool_allocator.7", %"struct.std::_Vector_base<glslang::HlslToken, glslang::pool_allocator<glslang::HlslToken>>::_Vector_impl_data" }
%"class.glslang::pool_allocator.7" = type { ptr }
%"struct.std::_Vector_base<glslang::HlslToken, glslang::pool_allocator<glslang::HlslToken>>::_Vector_impl_data" = type { ptr, ptr, ptr }

; Function Attrs: mustprogress nounwind uwtable
define void @_ZN7glslang15HlslTokenStream14popTokenBufferEv(ptr dead_on_unwind noalias writable sret(%"struct.glslang::HlslToken") align 8 %0, ptr noundef nonnull align 8 dereferenceable(324) %1) #0 align 2 {
  %3 = alloca ptr, align 8
  store ptr %1, ptr %3, align 8
  %4 = load ptr, ptr %3, align 8
  %5 = getelementptr inbounds %"class.glslang::HlslTokenStream", ptr %4, i32 0, i32 10
  %6 = load i32, ptr %5, align 8
  %7 = add nsw i32 %6, 2
  %8 = sub nsw i32 %7, 1
  %9 = srem i32 %8, 2
  %10 = getelementptr inbounds %"class.glslang::HlslTokenStream", ptr %4, i32 0, i32 10
  store i32 %9, ptr %10, align 8
  %11 = getelementptr inbounds %"class.glslang::HlslTokenStream", ptr %4, i32 0, i32 9
  %12 = getelementptr inbounds %"class.glslang::HlslTokenStream", ptr %4, i32 0, i32 10
  %13 = load i32, ptr %12, align 8
  %14 = sext i32 %13 to i64
  %15 = getelementptr inbounds [2 x %"struct.glslang::HlslToken"], ptr %11, i64 0, i64 %14
  call void @llvm.memcpy.p0.p0.i64(ptr align 8 %0, ptr align 8 %15, i64 40, i1 false)
  ret void
}