; Function Attrs: mustprogress nofree norecurse nosync nounwind willreturn memory(argmem: readwrite) uwtable
define void @_ZN7glslang15HlslTokenStream14popTokenBufferEv(ptr dead_on_unwind noalias nocapture writable writeonly sret(%"struct.glslang::HlslToken") align 8 %0, ptr nocapture noundef nonnull align 8 dereferenceable(324) %1) local_unnamed_addr #0 align 2 {
  %3 = getelementptr inbounds i8, ptr %1, i64 320
  %4 = load i32, ptr %3, align 8
  %5 = add nsw i32 %4, 1
  %6 = srem i32 %5, 2
  store i32 %6, ptr %3, align 8
  %7 = getelementptr inbounds i8, ptr %1, i64 240
  %8 = sext i32 %6 to i64
  %9 = getelementptr inbounds [2 x %"struct.glslang::HlslToken"], ptr %7, i64 0, i64 %8
  tail call void @llvm.memcpy.p0.p0.i64(ptr noundef nonnull align 8 dereferenceable(40) %0, ptr noundef nonnull align 8 dereferenceable(40) %9, i64 40, i1 false)
  ret void
}